target datalayout = "e-m:e-p270:32:32-p271:32:32-p272:64:64-i64:64-i128:128-f80:128-n8:16:32:64-S128"
target triple = "x86_64-pc-linux-gnu"

%struct.ct_data_s = type { %union.anon, %union.anon.0 }
%union.anon = type { i16 }
%union.anon.0 = type { i16 }
%struct.MOZ_Z_internal_state = type { ptr, i32, ptr, i64, ptr, i32, i32, ptr, i32, i8, i32, [12 x i8], [20 x i32], i32, i32, i32, ptr, i64, ptr, ptr, i32, i32, i32, i32, i32, ptr, [256 x i32], i64, i32, i32, i32, i32, i32, i32, i32, i32, i32, i32, i32, i32, i32, [573 x %struct.ct_data_s], [61 x %struct.ct_data_s], [39 x %struct.ct_data_s], %struct.tree_desc_s, %struct.tree_desc_s, %struct.tree_desc_s, [16 x i16], [573 x i32], i32, i32, [573 x i8], ptr, i32, i32, ptr, i64, i64, i32, i32, i16, i32, i64, [8 x i8] }
%struct.tree_desc_s = type { ptr, i32, ptr }

@static_l_desc = internal global { ptr, ptr, i32, i32, i32, [4 x i8] } { ptr @static_ltree, ptr @extra_lbits, i32 257, i32 286, i32 15, [4 x i8] zeroinitializer }, align 8
@static_d_desc = internal global { ptr, ptr, i32, i32, i32, [4 x i8] } { ptr @static_dtree, ptr @extra_dbits, i32 0, i32 30, i32 15, [4 x i8] zeroinitializer }, align 8
@static_bl_desc = internal global { ptr, ptr, i32, i32, i32, [4 x i8] } { ptr null, ptr @extra_blbits, i32 0, i32 19, i32 7, [4 x i8] zeroinitializer }, align 8

; Function Attrs: nounwind uwtable
define internal void @init_block(ptr noundef %0) #0 {
  %2 = alloca ptr, align 8
  %3 = alloca i32, align 4
  store ptr %0, ptr %2, align 8, !tbaa !3
  call void @llvm.lifetime.start.p0(i64 4, ptr %3) #2
  store i32 0, ptr %3, align 4, !tbaa !27
  br label %4

4:                                                ; preds = %14, %1
  %5 = load i32, ptr %3, align 4, !tbaa !27
  %6 = icmp slt i32 %5, 286
  br i1 %6, label %7, label %17

7:                                                ; preds = %4
  %8 = load ptr, ptr %2, align 8, !tbaa !3
  %9 = getelementptr inbounds nuw %struct.MOZ_Z_internal_state, ptr %8, i32 0, i32 41
  %10 = load i32, ptr %3, align 4, !tbaa !27
  %11 = sext i32 %10 to i64
  %12 = getelementptr inbounds [573 x %struct.ct_data_s], ptr %9, i64 0, i64 %11
  %13 = getelementptr inbounds nuw %struct.ct_data_s, ptr %12, i32 0, i32 0
  store i16 0, ptr %13, align 4, !tbaa !28
  br label %14

14:                                               ; preds = %7
  %15 = load i32, ptr %3, align 4, !tbaa !27
  %16 = add nsw i32 %15, 1
  store i32 %16, ptr %3, align 4, !tbaa !27
  br label %4, !llvm.loop !29

17:                                               ; preds = %4
  store i32 0, ptr %3, align 4, !tbaa !27
  br label %18

18:                                               ; preds = %28, %17
  %19 = load i32, ptr %3, align 4, !tbaa !27
  %20 = icmp slt i32 %19, 30
  br i1 %20, label %21, label %31

21:                                               ; preds = %18
  %22 = load ptr, ptr %2, align 8, !tbaa !3
  %23 = getelementptr inbounds nuw %struct.MOZ_Z_internal_state, ptr %22, i32 0, i32 42
  %24 = load i32, ptr %3, align 4, !tbaa !27
  %25 = sext i32 %24 to i64
  %26 = getelementptr inbounds [61 x %struct.ct_data_s], ptr %23, i64 0, i64 %25
  %27 = getelementptr inbounds nuw %struct.ct_data_s, ptr %26, i32 0, i32 0
  store i16 0, ptr %27, align 4, !tbaa !28
  br label %28

28:                                               ; preds = %21
  %29 = load i32, ptr %3, align 4, !tbaa !27
  %30 = add nsw i32 %29, 1
  store i32 %30, ptr %3, align 4, !tbaa !27
  br label %18, !llvm.loop !31

31:                                               ; preds = %18
  store i32 0, ptr %3, align 4, !tbaa !27
  br label %32

32:                                               ; preds = %42, %31
  %33 = load i32, ptr %3, align 4, !tbaa !27
  %34 = icmp slt i32 %33, 19
  br i1 %34, label %35, label %45

35:                                               ; preds = %32
  %36 = load ptr, ptr %2, align 8, !tbaa !3
  %37 = getelementptr inbounds nuw %struct.MOZ_Z_internal_state, ptr %36, i32 0, i32 43
  %38 = load i32, ptr %3, align 4, !tbaa !27
  %39 = sext i32 %38 to i64
  %40 = getelementptr inbounds [39 x %struct.ct_data_s], ptr %37, i64 0, i64 %39
  %41 = getelementptr inbounds nuw %struct.ct_data_s, ptr %40, i32 0, i32 0
  store i16 0, ptr %41, align 4, !tbaa !28
  br label %42

42:                                               ; preds = %35
  %43 = load i32, ptr %3, align 4, !tbaa !27
  %44 = add nsw i32 %43, 1
  store i32 %44, ptr %3, align 4, !tbaa !27
  br label %32, !llvm.loop !32

45:                                               ; preds = %32
  %46 = load ptr, ptr %2, align 8, !tbaa !3
  %47 = getelementptr inbounds nuw %struct.MOZ_Z_internal_state, ptr %46, i32 0, i32 41
  %48 = getelementptr inbounds [573 x %struct.ct_data_s], ptr %47, i64 0, i64 256
  %49 = getelementptr inbounds nuw %struct.ct_data_s, ptr %48, i32 0, i32 0
  store i16 1, ptr %49, align 4, !tbaa !28
  %50 = load ptr, ptr %2, align 8, !tbaa !3
  %51 = getelementptr inbounds nuw %struct.MOZ_Z_internal_state, ptr %50, i32 0, i32 57
  store i64 0, ptr %51, align 8, !tbaa !33
  %52 = load ptr, ptr %2, align 8, !tbaa !3
  %53 = getelementptr inbounds nuw %struct.MOZ_Z_internal_state, ptr %52, i32 0, i32 56
  store i64 0, ptr %53, align 16, !tbaa !34
  %54 = load ptr, ptr %2, align 8, !tbaa !3
  %55 = getelementptr inbounds nuw %struct.MOZ_Z_internal_state, ptr %54, i32 0, i32 58
  store i32 0, ptr %55, align 16, !tbaa !35
  %56 = load ptr, ptr %2, align 8, !tbaa !3
  %57 = getelementptr inbounds nuw %struct.MOZ_Z_internal_state, ptr %56, i32 0, i32 54
  store i32 0, ptr %57, align 4, !tbaa !36
  call void @llvm.lifetime.end.p0(i64 4, ptr %3) #2
  ret void
}

; Function Attrs: nounwind uwtable
define internal void @tr_static_init() #0 {
  ret void
}

; Function Attrs: nounwind uwtable
define void @MOZ_Z__tr_init(ptr noundef %0) #0 {
  %2 = alloca ptr, align 8
  store ptr %0, ptr %2, align 8, !tbaa !3
  call void @tr_static_init()
  %3 = load ptr, ptr %2, align 8, !tbaa !3
  %4 = getelementptr inbounds nuw %struct.MOZ_Z_internal_state, ptr %3, i32 0, i32 41
  %5 = getelementptr inbounds [573 x %struct.ct_data_s], ptr %4, i64 0, i64 0
  %6 = load ptr, ptr %2, align 8, !tbaa !3
  %7 = getelementptr inbounds nuw %struct.MOZ_Z_internal_state, ptr %6, i32 0, i32 44
  %8 = getelementptr inbounds nuw %struct.tree_desc_s, ptr %7, i32 0, i32 0
  store ptr %5, ptr %8, align 16, !tbaa !8
  %9 = load ptr, ptr %2, align 8, !tbaa !3
  %10 = getelementptr inbounds nuw %struct.MOZ_Z_internal_state, ptr %9, i32 0, i32 44
  %11 = getelementptr inbounds nuw %struct.tree_desc_s, ptr %10, i32 0, i32 2
  store ptr @static_l_desc, ptr %11, align 16, !tbaa !20
  %12 = load ptr, ptr %2, align 8, !tbaa !3
  %13 = getelementptr inbounds nuw %struct.MOZ_Z_internal_state, ptr %12, i32 0, i32 42
  %14 = getelementptr inbounds [61 x %struct.ct_data_s], ptr %13, i64 0, i64 0
  %15 = load ptr, ptr %2, align 8, !tbaa !3
  %16 = getelementptr inbounds nuw %struct.MOZ_Z_internal_state, ptr %15, i32 0, i32 45
  %17 = getelementptr inbounds nuw %struct.tree_desc_s, ptr %16, i32 0, i32 0
  store ptr %14, ptr %17, align 8, !tbaa !21
  %18 = load ptr, ptr %2, align 8, !tbaa !3
  %19 = getelementptr inbounds nuw %struct.MOZ_Z_internal_state, ptr %18, i32 0, i32 45
  %20 = getelementptr inbounds nuw %struct.tree_desc_s, ptr %19, i32 0, i32 2
  store ptr @static_d_desc, ptr %20, align 8, !tbaa !22
  %21 = load ptr, ptr %2, align 8, !tbaa !3
  %22 = getelementptr inbounds nuw %struct.MOZ_Z_internal_state, ptr %21, i32 0, i32 43
  %23 = getelementptr inbounds [39 x %struct.ct_data_s], ptr %22, i64 0, i64 0
  %24 = load ptr, ptr %2, align 8, !tbaa !3
  %25 = getelementptr inbounds nuw %struct.MOZ_Z_internal_state, ptr %24, i32 0, i32 46
  %26 = getelementptr inbounds nuw %struct.tree_desc_s, ptr %25, i32 0, i32 0
  store ptr %23, ptr %26, align 16, !tbaa !23
  %27 = load ptr, ptr %2, align 8, !tbaa !3
  %28 = getelementptr inbounds nuw %struct.MOZ_Z_internal_state, ptr %27, i32 0, i32 46
  %29 = getelementptr inbounds nuw %struct.tree_desc_s, ptr %28, i32 0, i32 2
  store ptr @static_bl_desc, ptr %29, align 16, !tbaa !24
  %30 = load ptr, ptr %2, align 8, !tbaa !3
  %31 = getelementptr inbounds nuw %struct.MOZ_Z_internal_state, ptr %30, i32 0, i32 60
  store i16 0, ptr %31, align 8, !tbaa !25
  %32 = load ptr, ptr %2, align 8, !tbaa !3
  %33 = getelementptr inbounds nuw %struct.MOZ_Z_internal_state, ptr %32, i32 0, i32 61
  store i32 0, ptr %33, align 4, !tbaa !26
  %34 = load ptr, ptr %2, align 8, !tbaa !3
  call void @init_block(ptr noundef %34)
  ret void
}