; Function Attrs: nofree norecurse nosync nounwind memory(argmem: write) uwtable
define void @MOZ_Z__tr_init(ptr noundef %0) local_unnamed_addr #0 {
  %2 = getelementptr inbounds nuw i8, ptr %0, i64 1324
  %3 = getelementptr inbounds nuw i8, ptr %0, i64 4016
  store ptr %2, ptr %3, align 16, !tbaa !3
  %4 = getelementptr inbounds nuw i8, ptr %0, i64 4032
  store ptr @static_l_desc, ptr %4, align 16, !tbaa !18
  %5 = getelementptr inbounds nuw i8, ptr %0, i64 3616
  %6 = getelementptr inbounds nuw i8, ptr %0, i64 4040
  store ptr %5, ptr %6, align 8, !tbaa !19
  %7 = getelementptr inbounds nuw i8, ptr %0, i64 4056
  store ptr @static_d_desc, ptr %7, align 8, !tbaa !20
  %8 = getelementptr inbounds nuw i8, ptr %0, i64 3860
  %9 = getelementptr inbounds nuw i8, ptr %0, i64 4064
  store ptr %8, ptr %9, align 16, !tbaa !21
  %10 = getelementptr inbounds nuw i8, ptr %0, i64 4080
  store ptr @static_bl_desc, ptr %10, align 16, !tbaa !22
  %11 = getelementptr inbounds nuw i8, ptr %0, i64 7048
  store i16 0, ptr %11, align 8, !tbaa !23
  %12 = getelementptr inbounds nuw i8, ptr %0, i64 7052
  store i32 0, ptr %12, align 4, !tbaa !24
  br label %13

13:                                               ; preds = %13, %1
  %indvars.iv.i = phi i64 [ 0, %1 ], [ %indvars.iv.next.i, %13 ]
  %14 = getelementptr inbounds nuw [573 x %struct.ct_data_s], ptr %2, i64 0, i64 %indvars.iv.i
  store i16 0, ptr %14, align 4, !tbaa !25
  %indvars.iv.next.i = add nuw nsw i64 %indvars.iv.i, 1
  %exitcond.not.i = icmp eq i64 %indvars.iv.next.i, 286
  br i1 %exitcond.not.i, label %.preheader16.i, label %13, !llvm.loop !26

.preheader16.i:                                   ; preds = %13, %.preheader16.i
  %indvars.iv21.i = phi i64 [ %indvars.iv.next22.i, %.preheader16.i ], [ 0, %13 ]
  %15 = getelementptr inbounds nuw [61 x %struct.ct_data_s], ptr %5, i64 0, i64 %indvars.iv21.i
  store i16 0, ptr %15, align 4, !tbaa !25
  %indvars.iv.next22.i = add nuw nsw i64 %indvars.iv21.i, 1
  %exitcond24.not.i = icmp eq i64 %indvars.iv.next22.i, 30
  br i1 %exitcond24.not.i, label %.preheader.i, label %.preheader16.i, !llvm.loop !28

.preheader.i:                                     ; preds = %.preheader16.i, %.preheader.i
  %indvars.iv25.i = phi i64 [ %indvars.iv.next26.i, %.preheader.i ], [ 0, %.preheader16.i ]
  %16 = getelementptr inbounds nuw [39 x %struct.ct_data_s], ptr %8, i64 0, i64 %indvars.iv25.i
  store i16 0, ptr %16, align 4, !tbaa !25
  %indvars.iv.next26.i = add nuw nsw i64 %indvars.iv25.i, 1
  %exitcond28.not.i = icmp eq i64 %indvars.iv.next26.i, 19
  br i1 %exitcond28.not.i, label %init_block.exit, label %.preheader.i, !llvm.loop !29

init_block.exit:                                  ; preds = %.preheader.i
  %17 = getelementptr inbounds nuw i8, ptr %0, i64 2348
  store i16 1, ptr %17, align 4, !tbaa !25
  %18 = getelementptr inbounds nuw i8, ptr %0, i64 7024
  %19 = getelementptr inbounds nuw i8, ptr %0, i64 7012
  store i32 0, ptr %19, align 4, !tbaa !30
  tail call void @llvm.memset.p0.i64(ptr noundef nonnull align 16 dereferenceable(20) %18, i8 0, i64 20, i1 false)
  ret void
}